target datalayout = "e-m:e-p270:32:32-p271:32:32-p272:64:64-i64:64-i128:128-f80:128-n8:16:32:64-S128"
target triple = "x86_64-pc-linux-gnu"

%"class.Ipopt::TaggedObject" = type { %"class.Ipopt::ReferencedObject.base", %"class.Ipopt::Subject", i32, i32 }
%"class.Ipopt::ReferencedObject.base" = type <{ ptr, i32 }>
%"class.Ipopt::Subject" = type { ptr, %"class.std::vector" }
%"class.std::vector" = type { %"struct.std::_Vector_base" }
%"struct.std::_Vector_base" = type { %"struct.std::_Vector_base<Ipopt::Observer *, std::allocator<Ipopt::Observer *>>::_Vector_impl" }
%"struct.std::_Vector_base<Ipopt::Observer *, std::allocator<Ipopt::Observer *>>::_Vector_impl" = type { %"struct.std::_Vector_base<Ipopt::Observer *, std::allocator<Ipopt::Observer *>>::_Vector_impl_data" }
%"struct.std::_Vector_base<Ipopt::Observer *, std::allocator<Ipopt::Observer *>>::_Vector_impl_data" = type { ptr, ptr, ptr }
%"class.Ipopt::SmartPtr.10" = type { ptr }
%"class.Ipopt::SmartPtr.11" = type { ptr }
%"class.Ipopt::SmartPtr.12" = type { ptr }
%"class.Ipopt::SmartPtr.13" = type { ptr }
%"class.Ipopt::SmartPtr.58" = type { ptr }
%"class.Ipopt::AlgorithmStrategyObject" = type <{ %"class.Ipopt::ReferencedObject.base", [4 x i8], %"class.Ipopt::SmartPtr.10", %"class.Ipopt::SmartPtr.11", %"class.Ipopt::SmartPtr.12", %"class.Ipopt::SmartPtr.13", i8, [7 x i8] }>
%"class.Ipopt::Vector" = type <{ %"class.Ipopt::TaggedObject", %"class.Ipopt::SmartPtr.58", %"class.Ipopt::CachedResults", i32, [4 x i8], double, i32, [4 x i8], double, i32, [4 x i8], double, i32, [4 x i8], double, i32, [4 x i8], double, i32, [4 x i8], double, i32, [4 x i8], double, i32, i8, [3 x i8] }>
%"class.Ipopt::CachedResults" = type { ptr, i32, ptr }

@.str.59 = private unnamed_addr constant [35 x i8] c"Limited-Memory test for skipping:\0A\00", align 1
@.str.60 = private unnamed_addr constant [36 x i8] c"     s^Ty = %e snrm = %e ynrm = %e\0A\00", align 1
@.str.61 = private unnamed_addr constant [23 x i8] c"     Skip the update.\0A\00", align 1
@.str.62 = private unnamed_addr constant [26 x i8] c"     Perform the update.\0A\00", align 1

; Function Attrs: mustprogress nounwind uwtable
define linkonce_odr noundef nonnull align 8 dereferenceable(40) ptr @_ZNK5Ipopt8SmartPtrIKNS_10JournalistEEdeEv(ptr noundef nonnull align 8 dereferenceable(8) %0) #4 comdat align 2 {
  %2 = alloca ptr, align 8
  store ptr %0, ptr %2, align 8
  %3 = load ptr, ptr %2, align 8
  %4 = getelementptr inbounds %"class.Ipopt::SmartPtr.10", ptr %3, i32 0, i32 0
  %5 = load ptr, ptr %4, align 8
  ret ptr %5
}

; Function Attrs: mustprogress nounwind uwtable
define linkonce_odr noundef i32 @_ZNK5Ipopt12TaggedObject6GetTagEv(ptr noundef nonnull align 8 dereferenceable(56) %0) #4 comdat align 2 {
  %2 = alloca ptr, align 8
  store ptr %0, ptr %2, align 8
  %3 = load ptr, ptr %2, align 8
  %4 = getelementptr inbounds %"class.Ipopt::TaggedObject", ptr %3, i32 0, i32 2
  %5 = load i32, ptr %4, align 8
  ret i32 %5
}

; Function Attrs: mustprogress uwtable
define linkonce_odr noundef nonnull align 8 dereferenceable(40) ptr @_ZNK5Ipopt23AlgorithmStrategyObject5JnlstEv(ptr noundef nonnull align 8 dereferenceable(49) %0) #7 comdat align 2 {
  %2 = alloca ptr, align 8
  store ptr %0, ptr %2, align 8
  %3 = load ptr, ptr %2, align 8
  %4 = getelementptr inbounds %"class.Ipopt::AlgorithmStrategyObject", ptr %3, i32 0, i32 2
  %5 = call noundef nonnull align 8 dereferenceable(40) ptr @_ZNK5Ipopt8SmartPtrIKNS_10JournalistEEdeEv(ptr noundef nonnull align 8 dereferenceable(8) %4)
  ret ptr %5
}

; Function Attrs: mustprogress nounwind uwtable
define linkonce_odr noundef double @_ZNSt14numeric_limitsIdE7epsilonEv() #4 comdat align 2 {
  ret double 0x3CB0000000000000
}

; Function Attrs: mustprogress uwtable
define linkonce_odr noundef double @_ZNK5Ipopt6Vector4Nrm2Ev(ptr noundef nonnull align 8 dereferenceable(205) %0) #7 comdat align 2 {
  %2 = alloca ptr, align 8
  store ptr %0, ptr %2, align 8
  %3 = load ptr, ptr %2, align 8
  %4 = getelementptr inbounds %"class.Ipopt::Vector", ptr %3, i32 0, i32 3
  %5 = load i32, ptr %4, align 8
  %6 = call noundef i32 @_ZNK5Ipopt12TaggedObject6GetTagEv(ptr noundef nonnull align 8 dereferenceable(56) %3)
  %7 = icmp ne i32 %5, %6
  br i1 %7, label %8, label %16

8:                                                ; preds = %1
  %9 = load ptr, ptr %3, align 8
  %10 = getelementptr inbounds ptr, ptr %9, i64 6
  %11 = load ptr, ptr %10, align 8
  %12 = call noundef double %11(ptr noundef nonnull align 8 dereferenceable(205) %3)
  %13 = getelementptr inbounds %"class.Ipopt::Vector", ptr %3, i32 0, i32 5
  store double %12, ptr %13, align 8
  %14 = call noundef i32 @_ZNK5Ipopt12TaggedObject6GetTagEv(ptr noundef nonnull align 8 dereferenceable(56) %3)
  %15 = getelementptr inbounds %"class.Ipopt::Vector", ptr %3, i32 0, i32 3
  store i32 %14, ptr %15, align 8
  br label %16

16:                                               ; preds = %8, %1
  %17 = getelementptr inbounds %"class.Ipopt::Vector", ptr %3, i32 0, i32 5
  %18 = load double, ptr %17, align 8
  ret double %18
}

; Function Attrs: mustprogress uwtable
define linkonce_odr noundef double @_ZNK5Ipopt6Vector3DotERKS0_(ptr noundef nonnull align 8 dereferenceable(205) %0, ptr noundef nonnull align 8 dereferenceable(205) %1) #7 comdat align 2 {
  %3 = alloca double, align 8
  %4 = alloca ptr, align 8
  %5 = alloca ptr, align 8
  %6 = alloca double, align 8
  %7 = alloca double, align 8
  store ptr %0, ptr %4, align 8
  store ptr %1, ptr %5, align 8
  %8 = load ptr, ptr %4, align 8
  %9 = load ptr, ptr %5, align 8
  %10 = icmp eq ptr %8, %9
  br i1 %10, label %11, label %16

11:                                               ; preds = %2
  %12 = call noundef double @_ZNK5Ipopt6Vector4Nrm2Ev(ptr noundef nonnull align 8 dereferenceable(205) %8)
  store double %12, ptr %6, align 8
  %13 = load double, ptr %6, align 8
  %14 = load double, ptr %6, align 8
  %15 = fmul double %13, %14
  store double %15, ptr %3, align 8
  br label %30

16:                                               ; preds = %2
  %17 = getelementptr inbounds %"class.Ipopt::Vector", ptr %8, i32 0, i32 2
  %18 = load ptr, ptr %5, align 8
  %19 = call noundef zeroext i1 @_ZN5Ipopt13CachedResultsIdE19GetCachedResult2DepERdPKNS_12TaggedObjectES5_(ptr noundef nonnull align 8 dereferenceable(24) %17, ptr noundef nonnull align 8 dereferenceable(8) %7, ptr noundef %8, ptr noundef %18)
  br i1 %19, label %28, label %20

20:                                               ; preds = %16
  %21 = load ptr, ptr %5, align 8
  %22 = load ptr, ptr %8, align 8
  %23 = getelementptr inbounds ptr, ptr %22, i64 5
  %24 = load ptr, ptr %23, align 8
  %25 = call noundef double %24(ptr noundef nonnull align 8 dereferenceable(205) %8, ptr noundef nonnull align 8 dereferenceable(205) %21)
  store double %25, ptr %7, align 8
  %26 = getelementptr inbounds %"class.Ipopt::Vector", ptr %8, i32 0, i32 2
  %27 = load ptr, ptr %5, align 8
  call void @_ZN5Ipopt13CachedResultsIdE19AddCachedResult2DepERKdPKNS_12TaggedObjectES6_(ptr noundef nonnull align 8 dereferenceable(24) %26, ptr noundef nonnull align 8 dereferenceable(8) %7, ptr noundef %8, ptr noundef %27)
  br label %28

28:                                               ; preds = %20, %16
  %29 = load double, ptr %7, align 8
  store double %29, ptr %3, align 8
  br label %30

30:                                               ; preds = %28, %11
  %31 = load double, ptr %3, align 8
  ret double %31
}

; Function Attrs: mustprogress uwtable
define noundef zeroext i1 @_ZN5Ipopt24LimMemQuasiNewtonUpdater17CheckSkippingBFGSERKNS_6VectorES3_(ptr noundef nonnull align 8 dereferenceable(416) %0, ptr noundef nonnull align 8 dereferenceable(205) %1, ptr noundef nonnull align 8 dereferenceable(205) %2) #7 align 2 {
  %4 = alloca ptr, align 8
  %5 = alloca ptr, align 8
  %6 = alloca ptr, align 8
  %7 = alloca double, align 8
  %8 = alloca double, align 8
  %9 = alloca double, align 8
  %10 = alloca double, align 8
  %11 = alloca i8, align 1
  store ptr %0, ptr %4, align 8
  store ptr %1, ptr %5, align 8
  store ptr %2, ptr %6, align 8
  %12 = load ptr, ptr %4, align 8
  %13 = load ptr, ptr %5, align 8
  %14 = load ptr, ptr %6, align 8
  %15 = call noundef double @_ZNK5Ipopt6Vector3DotERKS0_(ptr noundef nonnull align 8 dereferenceable(205) %13, ptr noundef nonnull align 8 dereferenceable(205) %14)
  store double %15, ptr %7, align 8
  %16 = load ptr, ptr %5, align 8
  %17 = call noundef double @_ZNK5Ipopt6Vector4Nrm2Ev(ptr noundef nonnull align 8 dereferenceable(205) %16)
  store double %17, ptr %8, align 8
  %18 = load ptr, ptr %6, align 8
  %19 = call noundef double @_ZNK5Ipopt6Vector4Nrm2Ev(ptr noundef nonnull align 8 dereferenceable(205) %18)
  store double %19, ptr %9, align 8
  %20 = call noundef double @_ZNSt14numeric_limitsIdE7epsilonEv() #3
  %21 = call double @sqrt(double noundef %20) #3
  store double %21, ptr %10, align 8
  %22 = call noundef nonnull align 8 dereferenceable(40) ptr @_ZNK5Ipopt23AlgorithmStrategyObject5JnlstEv(ptr noundef nonnull align 8 dereferenceable(49) %12)
  %23 = load ptr, ptr %22, align 8
  %24 = getelementptr inbounds ptr, ptr %23, i64 2
  %25 = load ptr, ptr %24, align 8
  call void (ptr, i32, i32, ptr, ...) %25(ptr noundef nonnull align 8 dereferenceable(40) %22, i32 noundef 6, i32 noundef 9, ptr noundef @.str.59)
  %26 = call noundef nonnull align 8 dereferenceable(40) ptr @_ZNK5Ipopt23AlgorithmStrategyObject5JnlstEv(ptr noundef nonnull align 8 dereferenceable(49) %12)
  %27 = load double, ptr %7, align 8
  %28 = load double, ptr %8, align 8
  %29 = load double, ptr %9, align 8
  %30 = load ptr, ptr %26, align 8
  %31 = getelementptr inbounds ptr, ptr %30, i64 2
  %32 = load ptr, ptr %31, align 8
  call void (ptr, i32, i32, ptr, ...) %32(ptr noundef nonnull align 8 dereferenceable(40) %26, i32 noundef 6, i32 noundef 9, ptr noundef @.str.60, double noundef %27, double noundef %28, double noundef %29)
  %33 = load double, ptr %7, align 8
  %34 = load double, ptr %10, align 8
  %35 = load double, ptr %8, align 8
  %36 = fmul double %34, %35
  %37 = load double, ptr %9, align 8
  %38 = fmul double %36, %37
  %39 = fcmp ole double %33, %38
  %40 = zext i1 %39 to i8
  store i8 %40, ptr %11, align 1
  %41 = load i8, ptr %11, align 1
  %42 = trunc i8 %41 to i1
  br i1 %42, label %43, label %48

43:                                               ; preds = %3
  %44 = call noundef nonnull align 8 dereferenceable(40) ptr @_ZNK5Ipopt23AlgorithmStrategyObject5JnlstEv(ptr noundef nonnull align 8 dereferenceable(49) %12)
  %45 = load ptr, ptr %44, align 8
  %46 = getelementptr inbounds ptr, ptr %45, i64 2
  %47 = load ptr, ptr %46, align 8
  call void (ptr, i32, i32, ptr, ...) %47(ptr noundef nonnull align 8 dereferenceable(40) %44, i32 noundef 6, i32 noundef 9, ptr noundef @.str.61)
  br label %53

48:                                               ; preds = %3
  %49 = call noundef nonnull align 8 dereferenceable(40) ptr @_ZNK5Ipopt23AlgorithmStrategyObject5JnlstEv(ptr noundef nonnull align 8 dereferenceable(49) %12)
  %50 = load ptr, ptr %49, align 8
  %51 = getelementptr inbounds ptr, ptr %50, i64 2
  %52 = load ptr, ptr %51, align 8
  call void (ptr, i32, i32, ptr, ...) %52(ptr noundef nonnull align 8 dereferenceable(40) %49, i32 noundef 6, i32 noundef 9, ptr noundef @.str.62)
  br label %53

53:                                               ; preds = %48, %43
  %54 = load i8, ptr %11, align 1
  %55 = trunc i8 %54 to i1
  ret i1 %55
}