; Function Attrs: mustprogress uwtable
define noundef zeroext i1 @_ZN5Ipopt24LimMemQuasiNewtonUpdater17CheckSkippingBFGSERKNS_6VectorES3_(ptr nocapture noundef nonnull readonly align 8 dereferenceable(416) %0, ptr noundef nonnull align 8 dereferenceable(205) %1, ptr noundef nonnull align 8 dereferenceable(205) %2) local_unnamed_addr #5 align 2 {
  %4 = alloca double, align 8
  call void @llvm.lifetime.start.p0(i64 8, ptr nonnull %4)
  %5 = icmp eq ptr %1, %2
  br i1 %5, label %6, label %20

6:                                                ; preds = %3
  %7 = getelementptr inbounds i8, ptr %1, i64 88
  %8 = load i32, ptr %7, align 8
  %9 = getelementptr inbounds i8, ptr %1, i64 48
  %10 = load i32, ptr %9, align 8
  %.not.i.i = icmp eq i32 %8, %10
  br i1 %.not.i.i, label %._crit_edge.i.i, label %11

._crit_edge.i.i:                                  ; preds = %6
  %.phi.trans.insert.i.i = getelementptr inbounds i8, ptr %1, i64 96
  %.pre.i.i = load double, ptr %.phi.trans.insert.i.i, align 8
  br label %_ZNK5Ipopt6Vector3DotERKS0_.exit.thread

11:                                               ; preds = %6
  %12 = load ptr, ptr %1, align 8
  %13 = getelementptr inbounds i8, ptr %12, i64 48
  %14 = load ptr, ptr %13, align 8
  %15 = tail call noundef double %14(ptr noundef nonnull align 8 dereferenceable(205) %1)
  %16 = getelementptr inbounds i8, ptr %1, i64 96
  store double %15, ptr %16, align 8
  %17 = load i32, ptr %9, align 8
  store i32 %17, ptr %7, align 8
  br label %_ZNK5Ipopt6Vector3DotERKS0_.exit.thread

_ZNK5Ipopt6Vector3DotERKS0_.exit.thread:          ; preds = %._crit_edge.i.i, %11
  %18 = phi double [ %.pre.i.i, %._crit_edge.i.i ], [ %15, %11 ]
  %19 = fmul double %18, %18
  call void @llvm.lifetime.end.p0(i64 8, ptr nonnull %4)
  br label %._crit_edge.i

20:                                               ; preds = %3
  %21 = getelementptr inbounds i8, ptr %1, i64 64
  %22 = call noundef zeroext i1 @_ZN5Ipopt13CachedResultsIdE19GetCachedResult2DepERdPKNS_12TaggedObjectES5_(ptr noundef nonnull align 8 dereferenceable(24) %21, ptr noundef nonnull align 8 dereferenceable(8) %4, ptr noundef nonnull %1, ptr noundef nonnull %2)
  br i1 %22, label %_ZNK5Ipopt6Vector3DotERKS0_.exit, label %23

23:                                               ; preds = %20
  %24 = load ptr, ptr %1, align 8
  %25 = getelementptr inbounds i8, ptr %24, i64 40
  %26 = load ptr, ptr %25, align 8
  %27 = call noundef double %26(ptr noundef nonnull align 8 dereferenceable(205) %1, ptr noundef nonnull align 8 dereferenceable(205) %2)
  store double %27, ptr %4, align 8
  call void @_ZN5Ipopt13CachedResultsIdE19AddCachedResult2DepERKdPKNS_12TaggedObjectES6_(ptr noundef nonnull align 8 dereferenceable(24) %21, ptr noundef nonnull align 8 dereferenceable(8) %4, ptr noundef nonnull %1, ptr noundef nonnull %2)
  br label %_ZNK5Ipopt6Vector3DotERKS0_.exit

_ZNK5Ipopt6Vector3DotERKS0_.exit:                 ; preds = %20, %23
  %28 = load double, ptr %4, align 8
  %.phi.trans.insert = getelementptr inbounds i8, ptr %1, i64 88
  %.pre = load i32, ptr %.phi.trans.insert, align 8
  %.phi.trans.insert18 = getelementptr inbounds i8, ptr %1, i64 48
  %.pre19 = load i32, ptr %.phi.trans.insert18, align 8
  call void @llvm.lifetime.end.p0(i64 8, ptr nonnull %4)
  %.not.i = icmp eq i32 %.pre, %.pre19
  br i1 %.not.i, label %._crit_edge.i, label %29

._crit_edge.i:                                    ; preds = %_ZNK5Ipopt6Vector3DotERKS0_.exit.thread, %_ZNK5Ipopt6Vector3DotERKS0_.exit
  %.0.i23 = phi double [ %19, %_ZNK5Ipopt6Vector3DotERKS0_.exit.thread ], [ %28, %_ZNK5Ipopt6Vector3DotERKS0_.exit ]
  %.phi.trans.insert.i = getelementptr inbounds i8, ptr %1, i64 96
  %.pre.i = load double, ptr %.phi.trans.insert.i, align 8
  br label %_ZNK5Ipopt6Vector4Nrm2Ev.exit

29:                                               ; preds = %_ZNK5Ipopt6Vector3DotERKS0_.exit
  %30 = getelementptr inbounds i8, ptr %1, i64 48
  %31 = getelementptr inbounds i8, ptr %1, i64 88
  %32 = load ptr, ptr %1, align 8
  %33 = getelementptr inbounds i8, ptr %32, i64 48
  %34 = load ptr, ptr %33, align 8
  %35 = call noundef double %34(ptr noundef nonnull align 8 dereferenceable(205) %1)
  %36 = getelementptr inbounds i8, ptr %1, i64 96
  store double %35, ptr %36, align 8
  %37 = load i32, ptr %30, align 8
  store i32 %37, ptr %31, align 8
  br label %_ZNK5Ipopt6Vector4Nrm2Ev.exit

_ZNK5Ipopt6Vector4Nrm2Ev.exit:                    ; preds = %._crit_edge.i, %29
  %.0.i22 = phi double [ %.0.i23, %._crit_edge.i ], [ %28, %29 ]
  %38 = phi double [ %.pre.i, %._crit_edge.i ], [ %35, %29 ]
  %39 = getelementptr inbounds i8, ptr %2, i64 88
  %40 = load i32, ptr %39, align 8
  %41 = getelementptr inbounds i8, ptr %2, i64 48
  %42 = load i32, ptr %41, align 8
  %.not.i13 = icmp eq i32 %40, %42
  br i1 %.not.i13, label %._crit_edge.i14, label %43

._crit_edge.i14:                                  ; preds = %_ZNK5Ipopt6Vector4Nrm2Ev.exit
  %.phi.trans.insert.i15 = getelementptr inbounds i8, ptr %2, i64 96
  %.pre.i16 = load double, ptr %.phi.trans.insert.i15, align 8
  br label %_ZNK5Ipopt6Vector4Nrm2Ev.exit17

43:                                               ; preds = %_ZNK5Ipopt6Vector4Nrm2Ev.exit
  %44 = load ptr, ptr %2, align 8
  %45 = getelementptr inbounds i8, ptr %44, i64 48
  %46 = load ptr, ptr %45, align 8
  %47 = call noundef double %46(ptr noundef nonnull align 8 dereferenceable(205) %2)
  %48 = getelementptr inbounds i8, ptr %2, i64 96
  store double %47, ptr %48, align 8
  %49 = load i32, ptr %41, align 8
  store i32 %49, ptr %39, align 8
  br label %_ZNK5Ipopt6Vector4Nrm2Ev.exit17

_ZNK5Ipopt6Vector4Nrm2Ev.exit17:                  ; preds = %._crit_edge.i14, %43
  %50 = phi double [ %.pre.i16, %._crit_edge.i14 ], [ %47, %43 ]
  %51 = getelementptr inbounds i8, ptr %0, i64 16
  %52 = load ptr, ptr %51, align 8
  %53 = load ptr, ptr %52, align 8
  %54 = getelementptr inbounds i8, ptr %53, i64 16
  %55 = load ptr, ptr %54, align 8
  call void (ptr, i32, i32, ptr, ...) %55(ptr noundef nonnull align 8 dereferenceable(40) %52, i32 noundef 6, i32 noundef 9, ptr noundef nonnull @.str.59)
  %56 = load ptr, ptr %51, align 8
  %57 = load ptr, ptr %56, align 8
  %58 = getelementptr inbounds i8, ptr %57, i64 16
  %59 = load ptr, ptr %58, align 8
  call void (ptr, i32, i32, ptr, ...) %59(ptr noundef nonnull align 8 dereferenceable(40) %56, i32 noundef 6, i32 noundef 9, ptr noundef nonnull @.str.60, double noundef %.0.i22, double noundef %38, double noundef %50)
  %60 = fmul double %38, 0x3E50000000000000
  %61 = fmul double %60, %50
  %62 = fcmp ole double %.0.i22, %61
  %63 = load ptr, ptr %51, align 8
  %64 = load ptr, ptr %63, align 8
  %65 = getelementptr inbounds i8, ptr %64, i64 16
  %66 = load ptr, ptr %65, align 8
  %.str.61..str.62 = select i1 %62, ptr @.str.61, ptr @.str.62
  call void (ptr, i32, i32, ptr, ...) %66(ptr noundef nonnull align 8 dereferenceable(40) %63, i32 noundef 6, i32 noundef 9, ptr noundef nonnull %.str.61..str.62)
  ret i1 %62
}